; Function Attrs: mustprogress nofree nosync nounwind memory(readwrite, inaccessiblemem: none) uwtable
define internal fastcc void @_ZL10fix_parentP13IdealLoopTreeS0_(ptr noundef %0, ptr noundef %1) unnamed_addr #6 {
  br label %tailrecurse

tailrecurse:                                      ; preds = %6, %2
  %.tr = phi ptr [ %0, %2 ], [ %8, %6 ]
  store ptr %1, ptr %.tr, align 8
  %3 = getelementptr inbounds i8, ptr %.tr, i64 16
  %4 = load ptr, ptr %3, align 8
  %.not = icmp eq ptr %4, null
  br i1 %.not, label %6, label %5

5:                                                ; preds = %tailrecurse
  tail call fastcc void @_ZL10fix_parentP13IdealLoopTreeS0_(ptr noundef nonnull %4, ptr noundef nonnull %.tr)
  br label %6

6:                                                ; preds = %5, %tailrecurse
  %7 = getelementptr inbounds i8, ptr %.tr, i64 8
  %8 = load ptr, ptr %7, align 8
  %.not9 = icmp eq ptr %8, null
  br i1 %.not9, label %9, label %tailrecurse

9:                                                ; preds = %6
  ret void
}